target datalayout = "e-m:e-p270:32:32-p271:32:32-p272:64:64-i64:64-i128:128-f80:128-n8:16:32:64-S128"
target triple = "x86_64-pc-linux-gnu"

; Function Attrs: disable_sanitizer_instrumentation nounwind uwtable
define internal ptr @resolve_hs_deserialize_database() #0 {
  %1 = alloca ptr, align 8
  %2 = call i32 @check_avx2()
  %3 = icmp ne i32 %2, 0
  br i1 %3, label %4, label %5

4:                                                ; preds = %0
  store ptr @avx2_hs_deserialize_database, ptr %1, align 8
  br label %17

5:                                                ; preds = %0
  %6 = call i32 @check_sse42()
  %7 = icmp ne i32 %6, 0
  br i1 %7, label %8, label %12

8:                                                ; preds = %5
  %9 = call i32 @check_popcnt()
  %10 = icmp ne i32 %9, 0
  br i1 %10, label %11, label %12

11:                                               ; preds = %8
  store ptr @corei7_hs_deserialize_database, ptr %1, align 8
  br label %17

12:                                               ; preds = %8, %5
  %13 = call i32 @check_ssse3()
  %14 = icmp ne i32 %13, 0
  br i1 %14, label %15, label %16

15:                                               ; preds = %12
  store ptr @core2_hs_deserialize_database, ptr %1, align 8
  br label %17

16:                                               ; preds = %12
  store ptr @error_hs_deserialize_database, ptr %1, align 8
  br label %17

17:                                               ; preds = %16, %15, %11, %4
  %18 = load ptr, ptr %1, align 8
  ret ptr %18
}